; Function Attrs: mustprogress uwtable
define hidden noundef zeroext i1 @_ZNK7zstring11well_formedEv(ptr noundef nonnull readonly align 8 captures(none) dereferenceable(80) %0) local_unnamed_addr #3 align 2 {
  %2 = load ptr, ptr %0, align 8, !tbaa !13
  %3 = getelementptr inbounds nuw i8, ptr %0, i64 8
  %4 = load i32, ptr %3, align 8, !tbaa !16
  %5 = zext i32 %4 to i64
  %6 = getelementptr inbounds nuw i32, ptr %2, i64 %5
  %.not21 = icmp eq i32 %4, 0
  br i1 %.not21, label %.loopexit, label %.lr.ph

7:                                                ; preds = %.lr.ph
  %8 = getelementptr inbounds nuw i8, ptr %.01422, i64 4
  %.not = icmp eq ptr %8, %6
  br i1 %.not, label %.loopexit, label %.lr.ph

.lr.ph:                                           ; preds = %1, %7
  %.01422 = phi ptr [ %8, %7 ], [ %2, %1 ]
  %9 = load i32, ptr %.01422, align 4, !tbaa !9
  %10 = tail call noundef i32 @_ZN7zstring12get_encodingEv()
  %11 = zext nneg i32 %10 to i64
  %switch.gep = getelementptr inbounds nuw [3 x i32], ptr @switch.table._ZNK7zstring11well_formedEv, i64 0, i64 %11
  %switch.load = load i32, ptr %switch.gep, align 4
  %.not16 = icmp ugt i32 %9, %switch.load
  br i1 %.not16, label %12, label %7

12:                                               ; preds = %.lr.ph
  %13 = tail call noundef i32 @_Z19get_verbosity_levelv()
  %14 = tail call noundef zeroext i1 @_Z11is_threadedv()
  br i1 %14, label %15, label %21

15:                                               ; preds = %12
  tail call void @_Z12verbose_lockv()
  %16 = tail call noundef nonnull align 8 dereferenceable(8) ptr @_Z14verbose_streamv()
  %17 = tail call noundef nonnull align 8 dereferenceable(8) ptr @_ZSt16__ostream_insertIcSt11char_traitsIcEERSt13basic_ostreamIT_T0_ES6_PKS3_l(ptr noundef nonnull align 8 dereferenceable(8) %16, ptr noundef nonnull @.str.4, i64 noundef 17)
  %18 = zext i32 %9 to i64
  %19 = tail call noundef nonnull align 8 dereferenceable(8) ptr @_ZNSo9_M_insertImEERSoT_(ptr noundef nonnull align 8 dereferenceable(8) %16, i64 noundef %18)
  %20 = tail call noundef nonnull align 8 dereferenceable(8) ptr @_ZSt16__ostream_insertIcSt11char_traitsIcEERSt13basic_ostreamIT_T0_ES6_PKS3_l(ptr noundef nonnull align 8 dereferenceable(8) %19, ptr noundef nonnull @.str.5, i64 noundef 1)
  tail call void @_Z14verbose_unlockv()
  br label %.loopexit

21:                                               ; preds = %12
  %22 = tail call noundef nonnull align 8 dereferenceable(8) ptr @_Z14verbose_streamv()
  %23 = tail call noundef nonnull align 8 dereferenceable(8) ptr @_ZSt16__ostream_insertIcSt11char_traitsIcEERSt13basic_ostreamIT_T0_ES6_PKS3_l(ptr noundef nonnull align 8 dereferenceable(8) %22, ptr noundef nonnull @.str.4, i64 noundef 17)
  %24 = zext i32 %9 to i64
  %25 = tail call noundef nonnull align 8 dereferenceable(8) ptr @_ZNSo9_M_insertImEERSoT_(ptr noundef nonnull align 8 dereferenceable(8) %22, i64 noundef %24)
  %26 = tail call noundef nonnull align 8 dereferenceable(8) ptr @_ZSt16__ostream_insertIcSt11char_traitsIcEERSt13basic_ostreamIT_T0_ES6_PKS3_l(ptr noundef nonnull align 8 dereferenceable(8) %25, ptr noundef nonnull @.str.5, i64 noundef 1)
  br label %.loopexit

.loopexit:                                        ; preds = %7, %1, %15, %21
  %.not19 = phi i1 [ false, %15 ], [ false, %21 ], [ true, %1 ], [ true, %7 ]
  ret i1 %.not19
}